target datalayout = "e-m:e-p270:32:32-p271:32:32-p272:64:64-i64:64-i128:128-f80:128-n8:16:32:64-S128"
target triple = "x86_64-pc-linux-gnu"

@hf_rpc_auth_flavor = internal global i32 0, align 4
@hf_rpc_auth_length = internal global i32 0, align 4
@hf_rpc_authgss_token = internal global i32 0, align 4
@hf_rpc_authdes_nickname = internal global i32 0, align 4
@hf_rpc_authdes_timestamp = internal global i32 0, align 4
@hf_rpc_authdes_windowverf = internal global i32 0, align 4
@hf_rpc_authdes_timeverf = internal global i32 0, align 4
@hf_rpc_opaque_data = internal global i32 0, align 4
@ett_rpc_verf = internal global i32 0, align 4
@.str.342 = private unnamed_addr constant [9 x i8] c"Verifier\00", align 1

; Function Attrs: null_pointer_is_valid sspstrong uwtable
define internal i32 @dissect_rpc_authdes_desblock(ptr noundef %0, ptr noundef %1, i32 noundef %2, i32 noundef %3) #0 {
  %5 = alloca ptr, align 8
  %6 = alloca ptr, align 8
  %7 = alloca i32, align 4
  %8 = alloca i32, align 4
  store ptr %0, ptr %5, align 8
  store ptr %1, ptr %6, align 8
  store i32 %2, ptr %7, align 4
  store i32 %3, ptr %8, align 4
  %9 = load ptr, ptr %6, align 8
  %10 = load i32, ptr %7, align 4
  %11 = load ptr, ptr %5, align 8
  %12 = load i32, ptr %8, align 4
  %13 = call ptr @proto_tree_add_item(ptr noundef %9, i32 noundef %10, ptr noundef %11, i32 noundef %12, i32 noundef 8, i32 noundef 0)
  %14 = load i32, ptr %8, align 4
  %15 = add i32 %14, 8
  ret i32 %15
}

; Function Attrs: null_pointer_is_valid sspstrong uwtable
define i32 @rpc_roundup(i32 noundef %0) #0 {
  %2 = alloca i32, align 4
  %3 = alloca i32, align 4
  %4 = alloca i32, align 4
  store i32 %0, ptr %2, align 4
  call void @llvm.lifetime.start.p0(i64 4, ptr %3) #18
  %5 = load i32, ptr %2, align 4
  %6 = urem i32 %5, 4
  store i32 %6, ptr %3, align 4
  call void @llvm.lifetime.start.p0(i64 4, ptr %4) #18
  %7 = load i32, ptr %2, align 4
  %8 = load i32, ptr %3, align 4
  %9 = icmp ne i32 %8, 0
  br i1 %9, label %10, label %13

10:                                               ; preds = %1
  %11 = load i32, ptr %3, align 4
  %12 = sub i32 4, %11
  br label %14

13:                                               ; preds = %1
  br label %14

14:                                               ; preds = %13, %10
  %15 = phi i32 [ %12, %10 ], [ 0, %13 ]
  %16 = add i32 %7, %15
  store i32 %16, ptr %4, align 4
  %17 = load i32, ptr %4, align 4
  %18 = load i32, ptr %2, align 4
  %19 = icmp ult i32 %17, %18
  br i1 %19, label %20, label %21

20:                                               ; preds = %14
  call void @except_throw(i64 noundef 1, i64 noundef 3, ptr noundef null) #21
  unreachable

21:                                               ; preds = %14
  %22 = load i32, ptr %4, align 4
  call void @llvm.lifetime.end.p0(i64 4, ptr %4) #18
  call void @llvm.lifetime.end.p0(i64 4, ptr %3) #18
  ret i32 %22
}

; Function Attrs: null_pointer_is_valid sspstrong uwtable
define internal i32 @dissect_rpc_verf(ptr noundef %0, ptr noundef %1, i32 noundef %2, i32 noundef %3, ptr noundef %4) #0 {
  %6 = alloca ptr, align 8
  %7 = alloca ptr, align 8
  %8 = alloca i32, align 4
  %9 = alloca i32, align 4
  %10 = alloca ptr, align 8
  %11 = alloca i32, align 4
  %12 = alloca i32, align 4
  %13 = alloca ptr, align 8
  %14 = alloca i32, align 4
  %15 = alloca i32, align 4
  store ptr %0, ptr %6, align 8
  store ptr %1, ptr %7, align 8
  store i32 %2, ptr %8, align 4
  store i32 %3, ptr %9, align 4
  store ptr %4, ptr %10, align 8
  call void @llvm.lifetime.start.p0(i64 4, ptr %11) #18
  call void @llvm.lifetime.start.p0(i64 4, ptr %12) #18
  call void @llvm.lifetime.start.p0(i64 8, ptr %13) #18
  %16 = load ptr, ptr %6, align 8
  %17 = load i32, ptr %8, align 4
  %18 = call i32 @tvb_get_ntohl(ptr noundef %16, i32 noundef %17)
  store i32 %18, ptr %11, align 4
  %19 = load ptr, ptr %6, align 8
  %20 = load i32, ptr %8, align 4
  %21 = add i32 %20, 4
  %22 = call i32 @tvb_get_ntohl(ptr noundef %19, i32 noundef %21)
  store i32 %22, ptr %12, align 4
  %23 = load i32, ptr %12, align 4
  %24 = call i32 @rpc_roundup(i32 noundef %23)
  store i32 %24, ptr %12, align 4
  %25 = load ptr, ptr %7, align 8
  %26 = icmp ne ptr %25, null
  br i1 %26, label %27, label %130

27:                                               ; preds = %5
  %28 = load ptr, ptr %7, align 8
  %29 = load ptr, ptr %6, align 8
  %30 = load i32, ptr %8, align 4
  %31 = load i32, ptr %12, align 4
  %32 = add i32 8, %31
  %33 = load i32, ptr @ett_rpc_verf, align 4
  %34 = call ptr @proto_tree_add_subtree(ptr noundef %28, ptr noundef %29, i32 noundef %30, i32 noundef %32, i32 noundef %33, ptr noundef null, ptr noundef @.str.342)
  store ptr %34, ptr %13, align 8
  %35 = load ptr, ptr %13, align 8
  %36 = load i32, ptr @hf_rpc_auth_flavor, align 4
  %37 = load ptr, ptr %6, align 8
  %38 = load i32, ptr %8, align 4
  %39 = load i32, ptr %11, align 4
  %40 = call ptr @proto_tree_add_uint(ptr noundef %35, i32 noundef %36, ptr noundef %37, i32 noundef %38, i32 noundef 4, i32 noundef %39)
  %41 = load i32, ptr %11, align 4
  switch i32 %41, label %110 [
    i32 1, label %42
    i32 3, label %55
    i32 6, label %102
  ]

42:                                               ; preds = %27
  %43 = load ptr, ptr %13, align 8
  %44 = load i32, ptr @hf_rpc_auth_length, align 4
  %45 = load ptr, ptr %6, align 8
  %46 = load i32, ptr %8, align 4
  %47 = add i32 %46, 4
  %48 = load i32, ptr %12, align 4
  %49 = call ptr @proto_tree_add_uint(ptr noundef %43, i32 noundef %44, ptr noundef %45, i32 noundef %47, i32 noundef 4, i32 noundef %48)
  %50 = load ptr, ptr %6, align 8
  %51 = load ptr, ptr %13, align 8
  %52 = load i32, ptr %8, align 4
  %53 = add i32 %52, 8
  %54 = call i32 @dissect_rpc_authunix_cred(ptr noundef %50, ptr noundef %51, i32 noundef %53)
  br label %129

55:                                               ; preds = %27
  %56 = load ptr, ptr %13, align 8
  %57 = load i32, ptr @hf_rpc_auth_length, align 4
  %58 = load ptr, ptr %6, align 8
  %59 = load i32, ptr %8, align 4
  %60 = add i32 %59, 4
  %61 = load i32, ptr %12, align 4
  %62 = call ptr @proto_tree_add_uint(ptr noundef %56, i32 noundef %57, ptr noundef %58, i32 noundef %60, i32 noundef 4, i32 noundef %61)
  %63 = load i32, ptr %9, align 4
  %64 = icmp eq i32 %63, 0
  br i1 %64, label %65, label %83

65:                                               ; preds = %55
  call void @llvm.lifetime.start.p0(i64 4, ptr %14) #18
  %66 = load ptr, ptr %6, align 8
  %67 = load ptr, ptr %13, align 8
  %68 = load i32, ptr @hf_rpc_authdes_timestamp, align 4
  %69 = load i32, ptr %8, align 4
  %70 = add i32 %69, 8
  %71 = call i32 @dissect_rpc_authdes_desblock(ptr noundef %66, ptr noundef %67, i32 noundef %68, i32 noundef %70)
  %72 = load ptr, ptr %6, align 8
  %73 = load i32, ptr %8, align 4
  %74 = add i32 %73, 16
  %75 = call i32 @tvb_get_ntohl(ptr noundef %72, i32 noundef %74)
  store i32 %75, ptr %14, align 4
  %76 = load ptr, ptr %13, align 8
  %77 = load i32, ptr @hf_rpc_authdes_windowverf, align 4
  %78 = load ptr, ptr %6, align 8
  %79 = load i32, ptr %8, align 4
  %80 = add i32 %79, 16
  %81 = load i32, ptr %14, align 4
  %82 = call ptr @proto_tree_add_uint(ptr noundef %76, i32 noundef %77, ptr noundef %78, i32 noundef %80, i32 noundef 4, i32 noundef %81)
  call void @llvm.lifetime.end.p0(i64 4, ptr %14) #18
  br label %101

83:                                               ; preds = %55
  call void @llvm.lifetime.start.p0(i64 4, ptr %15) #18
  %84 = load ptr, ptr %6, align 8
  %85 = load ptr, ptr %13, align 8
  %86 = load i32, ptr @hf_rpc_authdes_timeverf, align 4
  %87 = load i32, ptr %8, align 4
  %88 = add i32 %87, 8
  %89 = call i32 @dissect_rpc_authdes_desblock(ptr noundef %84, ptr noundef %85, i32 noundef %86, i32 noundef %88)
  %90 = load ptr, ptr %6, align 8
  %91 = load i32, ptr %8, align 4
  %92 = add i32 %91, 16
  %93 = call i32 @tvb_get_ntohl(ptr noundef %90, i32 noundef %92)
  store i32 %93, ptr %15, align 4
  %94 = load ptr, ptr %13, align 8
  %95 = load i32, ptr @hf_rpc_authdes_nickname, align 4
  %96 = load ptr, ptr %6, align 8
  %97 = load i32, ptr %8, align 4
  %98 = add i32 %97, 16
  %99 = load i32, ptr %15, align 4
  %100 = call ptr @proto_tree_add_uint(ptr noundef %94, i32 noundef %95, ptr noundef %96, i32 noundef %98, i32 noundef 4, i32 noundef %99)
  call void @llvm.lifetime.end.p0(i64 4, ptr %15) #18
  br label %101

101:                                              ; preds = %83, %65
  br label %129

102:                                              ; preds = %27
  %103 = load ptr, ptr %6, align 8
  %104 = load ptr, ptr %13, align 8
  %105 = load i32, ptr %8, align 4
  %106 = add i32 %105, 4
  %107 = load ptr, ptr %10, align 8
  %108 = load i32, ptr @hf_rpc_authgss_token, align 4
  %109 = call i32 @dissect_rpc_authgss_token(ptr noundef %103, ptr noundef %104, i32 noundef %106, ptr noundef %107, i32 noundef %108)
  br label %129

110:                                              ; preds = %27
  %111 = load ptr, ptr %13, align 8
  %112 = load i32, ptr @hf_rpc_auth_length, align 4
  %113 = load ptr, ptr %6, align 8
  %114 = load i32, ptr %8, align 4
  %115 = add i32 %114, 4
  %116 = load i32, ptr %12, align 4
  %117 = call ptr @proto_tree_add_uint(ptr noundef %111, i32 noundef %112, ptr noundef %113, i32 noundef %115, i32 noundef 4, i32 noundef %116)
  %118 = load i32, ptr %12, align 4
  %119 = icmp ne i32 %118, 0
  br i1 %119, label %120, label %128

120:                                              ; preds = %110
  %121 = load ptr, ptr %13, align 8
  %122 = load i32, ptr @hf_rpc_opaque_data, align 4
  %123 = load ptr, ptr %6, align 8
  %124 = load i32, ptr %8, align 4
  %125 = add i32 %124, 8
  %126 = load i32, ptr %12, align 4
  %127 = call ptr @proto_tree_add_item(ptr noundef %121, i32 noundef %122, ptr noundef %123, i32 noundef %125, i32 noundef %126, i32 noundef 0)
  br label %128

128:                                              ; preds = %120, %110
  br label %129

129:                                              ; preds = %128, %102, %101, %42
  br label %130

130:                                              ; preds = %129, %5
  %131 = load i32, ptr %12, align 4
  %132 = add i32 8, %131
  %133 = load i32, ptr %8, align 4
  %134 = add i32 %133, %132
  store i32 %134, ptr %8, align 4
  %135 = load i32, ptr %8, align 4
  call void @llvm.lifetime.end.p0(i64 8, ptr %13) #18
  call void @llvm.lifetime.end.p0(i64 4, ptr %12) #18
  call void @llvm.lifetime.end.p0(i64 4, ptr %11) #18
  ret i32 %135
}