; Function Attrs: null_pointer_is_valid sspstrong uwtable
define internal fastcc i32 @dissect_rpc_verf(ptr noundef %0, ptr noundef %1, i32 noundef %2, i32 noundef range(i32 0, 2) %3, ptr noundef %4) unnamed_addr #0 {
  %6 = tail call i32 @tvb_get_ntohl(ptr noundef %0, i32 noundef %2)
  %7 = add i32 %2, 4
  %8 = tail call i32 @tvb_get_ntohl(ptr noundef %0, i32 noundef %7)
  %9 = and i32 %8, 3
  %.not.i = icmp eq i32 %9, 0
  %10 = sub nuw nsw i32 4, %9
  %11 = select i1 %.not.i, i32 0, i32 %10
  %12 = add i32 %11, %8
  %13 = icmp ult i32 %12, %8
  br i1 %13, label %14, label %rpc_roundup.exit

14:                                               ; preds = %5
  tail call void @except_throw(i64 noundef 1, i64 noundef 3, ptr noundef null) #19
  unreachable

rpc_roundup.exit:                                 ; preds = %5
  %.not = icmp eq ptr %1, null
  br i1 %.not, label %53, label %15

15:                                               ; preds = %rpc_roundup.exit
  %16 = add i32 %12, 8
  %17 = load i32, ptr @ett_rpc_verf, align 4
  %18 = tail call ptr @proto_tree_add_subtree(ptr noundef nonnull %1, ptr noundef %0, i32 noundef %2, i32 noundef %16, i32 noundef %17, ptr noundef null, ptr noundef nonnull @.str.342)
  %19 = load i32, ptr @hf_rpc_auth_flavor, align 4
  %20 = tail call ptr @proto_tree_add_uint(ptr noundef %18, i32 noundef %19, ptr noundef %0, i32 noundef %2, i32 noundef 4, i32 noundef %6)
  switch i32 %6, label %46 [
    i32 1, label %21
    i32 3, label %25
    i32 6, label %43
  ]

21:                                               ; preds = %15
  %22 = load i32, ptr @hf_rpc_auth_length, align 4
  %23 = tail call ptr @proto_tree_add_uint(ptr noundef %18, i32 noundef %22, ptr noundef %0, i32 noundef %7, i32 noundef 4, i32 noundef %12)
  %24 = add i32 %2, 8
  tail call fastcc void @dissect_rpc_authunix_cred(ptr noundef %0, ptr noundef %18, i32 noundef %24)
  br label %53

25:                                               ; preds = %15
  %26 = load i32, ptr @hf_rpc_auth_length, align 4
  %27 = tail call ptr @proto_tree_add_uint(ptr noundef %18, i32 noundef %26, ptr noundef %0, i32 noundef %7, i32 noundef 4, i32 noundef %12)
  %28 = icmp eq i32 %3, 0
  %29 = add i32 %2, 8
  %30 = add i32 %2, 16
  br i1 %28, label %31, label %37

31:                                               ; preds = %25
  %32 = load i32, ptr @hf_rpc_authdes_timestamp, align 4
  %33 = tail call ptr @proto_tree_add_item(ptr noundef %18, i32 noundef %32, ptr noundef %0, i32 noundef %29, i32 noundef 8, i32 noundef 0)
  %34 = tail call i32 @tvb_get_ntohl(ptr noundef %0, i32 noundef %30)
  %35 = load i32, ptr @hf_rpc_authdes_windowverf, align 4
  %36 = tail call ptr @proto_tree_add_uint(ptr noundef %18, i32 noundef %35, ptr noundef %0, i32 noundef %30, i32 noundef 4, i32 noundef %34)
  br label %53

37:                                               ; preds = %25
  %38 = load i32, ptr @hf_rpc_authdes_timeverf, align 4
  %39 = tail call ptr @proto_tree_add_item(ptr noundef %18, i32 noundef %38, ptr noundef %0, i32 noundef %29, i32 noundef 8, i32 noundef 0)
  %40 = tail call i32 @tvb_get_ntohl(ptr noundef %0, i32 noundef %30)
  %41 = load i32, ptr @hf_rpc_authdes_nickname, align 4
  %42 = tail call ptr @proto_tree_add_uint(ptr noundef %18, i32 noundef %41, ptr noundef %0, i32 noundef %30, i32 noundef 4, i32 noundef %40)
  br label %53

43:                                               ; preds = %15
  %44 = load i32, ptr @hf_rpc_authgss_token, align 4
  %45 = tail call fastcc i32 @dissect_rpc_authgss_token(ptr noundef %0, ptr noundef %18, i32 noundef %7, ptr noundef %4, i32 noundef %44)
  br label %53

46:                                               ; preds = %15
  %47 = load i32, ptr @hf_rpc_auth_length, align 4
  %48 = tail call ptr @proto_tree_add_uint(ptr noundef %18, i32 noundef %47, ptr noundef %0, i32 noundef %7, i32 noundef 4, i32 noundef %12)
  %.not61 = icmp eq i32 %12, 0
  br i1 %.not61, label %53, label %49

49:                                               ; preds = %46
  %50 = load i32, ptr @hf_rpc_opaque_data, align 4
  %51 = add i32 %2, 8
  %52 = tail call ptr @proto_tree_add_item(ptr noundef %18, i32 noundef %50, ptr noundef %0, i32 noundef %51, i32 noundef %12, i32 noundef 0)
  br label %53

53:                                               ; preds = %21, %43, %37, %31, %49, %46, %rpc_roundup.exit
  %54 = add i32 %2, 8
  %55 = add i32 %54, %12
  ret i32 %55
}